target datalayout = "e-m:e-p270:32:32-p271:32:32-p272:64:64-i64:64-i128:128-f80:128-n8:16:32:64-S128"
target triple = "x86_64-pc-linux-gnu"

; Function Attrs: nounwind uwtable
define i64 @avio_rl64(ptr noundef %0) #0 {
  %2 = alloca ptr, align 8
  %3 = alloca i64, align 8
  store ptr %0, ptr %2, align 8, !tbaa !14
  call void @llvm.lifetime.start.p0(i64 8, ptr %3) #12
  %4 = load ptr, ptr %2, align 8, !tbaa !14
  %5 = call i32 @avio_rl32(ptr noundef %4)
  %6 = zext i32 %5 to i64
  store i64 %6, ptr %3, align 8, !tbaa !53
  %7 = load ptr, ptr %2, align 8, !tbaa !14
  %8 = call i32 @avio_rl32(ptr noundef %7)
  %9 = zext i32 %8 to i64
  %10 = shl i64 %9, 32
  %11 = load i64, ptr %3, align 8, !tbaa !53
  %12 = or i64 %11, %10
  store i64 %12, ptr %3, align 8, !tbaa !53
  %13 = load i64, ptr %3, align 8, !tbaa !53
  call void @llvm.lifetime.end.p0(i64 8, ptr %3) #12
  ret i64 %13
}