; Function Attrs: nounwind uwtable
define i64 @avio_rl64(ptr noundef %0) local_unnamed_addr #3 {
  %2 = tail call i32 @avio_rl32(ptr noundef %0)
  %3 = zext i32 %2 to i64
  %4 = tail call i32 @avio_rl32(ptr noundef %0)
  %5 = zext i32 %4 to i64
  %6 = shl nuw i64 %5, 32
  %7 = or disjoint i64 %6, %3
  ret i64 %7
}